target datalayout = "e-m:e-p270:32:32-p271:32:32-p272:64:64-i64:64-i128:128-f80:128-n8:16:32:64-S128"
target triple = "x86_64-pc-linux-gnu"

%struct.AVDictionaryEntry = type { ptr, ptr }

; Function Attrs: nounwind uwtable
define ptr @av_packet_pack_dictionary(ptr noundef %0, ptr noundef %1) #0 {
  %3 = alloca ptr, align 8
  %4 = alloca ptr, align 8
  %5 = alloca ptr, align 8
  %6 = alloca ptr, align 8
  %7 = alloca i32, align 4
  %8 = alloca i32, align 4
  %9 = alloca ptr, align 8
  %10 = alloca i64, align 8
  %11 = alloca i32, align 4
  %12 = alloca ptr, align 8
  %13 = alloca i64, align 8
  store ptr %0, ptr %4, align 8, !tbaa !56
  store ptr %1, ptr %5, align 8, !tbaa !53
  call void @llvm.lifetime.start.p0(i64 8, ptr %6) #9
  store ptr null, ptr %6, align 8, !tbaa !42
  %14 = load ptr, ptr %5, align 8, !tbaa !53
  store i64 0, ptr %14, align 8, !tbaa !43
  %15 = load ptr, ptr %4, align 8, !tbaa !56
  %16 = icmp ne ptr %15, null
  br i1 %16, label %18, label %17

17:                                               ; preds = %2
  store ptr null, ptr %3, align 8
  store i32 1, ptr %7, align 4
  br label %101

18:                                               ; preds = %2
  call void @llvm.lifetime.start.p0(i64 4, ptr %8) #9
  store i32 0, ptr %8, align 4, !tbaa !28
  br label %19

19:                                               ; preds = %94, %18
  %20 = load i32, ptr %8, align 4, !tbaa !28
  %21 = icmp slt i32 %20, 2
  br i1 %21, label %23, label %22

22:                                               ; preds = %19
  store i32 2, ptr %7, align 4
  br label %97

23:                                               ; preds = %19
  call void @llvm.lifetime.start.p0(i64 8, ptr %9) #9
  store ptr null, ptr %9, align 8, !tbaa !58
  call void @llvm.lifetime.start.p0(i64 8, ptr %10) #9
  store i64 0, ptr %10, align 8, !tbaa !43
  br label %24

24:                                               ; preds = %77, %23
  %25 = load ptr, ptr %4, align 8, !tbaa !56
  %26 = load ptr, ptr %9, align 8, !tbaa !58
  %27 = call ptr @av_dict_iterate(ptr noundef %25, ptr noundef %26)
  store ptr %27, ptr %9, align 8, !tbaa !58
  %28 = icmp ne ptr %27, null
  br i1 %28, label %29, label %78

29:                                               ; preds = %24
  call void @llvm.lifetime.start.p0(i64 4, ptr %11) #9
  store i32 0, ptr %11, align 4, !tbaa !28
  br label %30

30:                                               ; preds = %72, %29
  %31 = load i32, ptr %11, align 4, !tbaa !28
  %32 = icmp slt i32 %31, 2
  br i1 %32, label %34, label %33

33:                                               ; preds = %30
  store i32 7, ptr %7, align 4
  br label %75

34:                                               ; preds = %30
  call void @llvm.lifetime.start.p0(i64 8, ptr %12) #9
  %35 = load i32, ptr %11, align 4, !tbaa !28
  %36 = icmp ne i32 %35, 0
  br i1 %36, label %37, label %41

37:                                               ; preds = %34
  %38 = load ptr, ptr %9, align 8, !tbaa !58
  %39 = getelementptr inbounds nuw %struct.AVDictionaryEntry, ptr %38, i32 0, i32 1
  %40 = load ptr, ptr %39, align 8, !tbaa !60
  br label %45

41:                                               ; preds = %34
  %42 = load ptr, ptr %9, align 8, !tbaa !58
  %43 = getelementptr inbounds nuw %struct.AVDictionaryEntry, ptr %42, i32 0, i32 0
  %44 = load ptr, ptr %43, align 8, !tbaa !62
  br label %45

45:                                               ; preds = %41, %37
  %46 = phi ptr [ %40, %37 ], [ %44, %41 ]
  store ptr %46, ptr %12, align 8, !tbaa !42
  call void @llvm.lifetime.start.p0(i64 8, ptr %13) #9
  %47 = load ptr, ptr %12, align 8, !tbaa !42
  %48 = call i64 @strlen(ptr noundef %47) #11
  %49 = add i64 %48, 1
  store i64 %49, ptr %13, align 8, !tbaa !43
  %50 = load i32, ptr %8, align 4, !tbaa !28
  %51 = icmp ne i32 %50, 0
  br i1 %51, label %52, label %58

52:                                               ; preds = %45
  %53 = load ptr, ptr %6, align 8, !tbaa !42
  %54 = load i64, ptr %10, align 8, !tbaa !43
  %55 = getelementptr inbounds nuw i8, ptr %53, i64 %54
  %56 = load ptr, ptr %12, align 8, !tbaa !42
  %57 = load i64, ptr %13, align 8, !tbaa !43
  call void @llvm.memcpy.p0.p0.i64(ptr align 1 %55, ptr align 1 %56, i64 %57, i1 false)
  br label %65

58:                                               ; preds = %45
  %59 = load i64, ptr %13, align 8, !tbaa !43
  %60 = load i64, ptr %10, align 8, !tbaa !43
  %61 = sub i64 -1, %60
  %62 = icmp ugt i64 %59, %61
  br i1 %62, label %63, label %64

63:                                               ; preds = %58
  store ptr null, ptr %3, align 8
  store i32 1, ptr %7, align 4
  br label %69

64:                                               ; preds = %58
  br label %65

65:                                               ; preds = %64, %52
  %66 = load i64, ptr %13, align 8, !tbaa !43
  %67 = load i64, ptr %10, align 8, !tbaa !43
  %68 = add i64 %67, %66
  store i64 %68, ptr %10, align 8, !tbaa !43
  store i32 0, ptr %7, align 4
  br label %69

69:                                               ; preds = %65, %63
  call void @llvm.lifetime.end.p0(i64 8, ptr %13) #9
  call void @llvm.lifetime.end.p0(i64 8, ptr %12) #9
  %70 = load i32, ptr %7, align 4
  switch i32 %70, label %75 [
    i32 0, label %71
  ]

71:                                               ; preds = %69
  br label %72

72:                                               ; preds = %71
  %73 = load i32, ptr %11, align 4, !tbaa !28
  %74 = add nsw i32 %73, 1
  store i32 %74, ptr %11, align 4, !tbaa !28
  br label %30, !llvm.loop !63

75:                                               ; preds = %69, %33
  call void @llvm.lifetime.end.p0(i64 4, ptr %11) #9
  %76 = load i32, ptr %7, align 4
  switch i32 %76, label %91 [
    i32 7, label %77
  ]

77:                                               ; preds = %75
  br label %24, !llvm.loop !64

78:                                               ; preds = %24
  %79 = load i32, ptr %8, align 4, !tbaa !28
  %80 = icmp ne i32 %79, 0
  br i1 %80, label %81, label %82

81:                                               ; preds = %78
  store i32 2, ptr %7, align 4
  br label %91

82:                                               ; preds = %78
  %83 = load i64, ptr %10, align 8, !tbaa !43
  %84 = call noalias ptr @av_malloc(i64 noundef %83)
  store ptr %84, ptr %6, align 8, !tbaa !42
  %85 = load ptr, ptr %6, align 8, !tbaa !42
  %86 = icmp ne ptr %85, null
  br i1 %86, label %88, label %87

87:                                               ; preds = %82
  store ptr null, ptr %3, align 8
  store i32 1, ptr %7, align 4
  br label %91

88:                                               ; preds = %82
  %89 = load i64, ptr %10, align 8, !tbaa !43
  %90 = load ptr, ptr %5, align 8, !tbaa !53
  store i64 %89, ptr %90, align 8, !tbaa !43
  store i32 0, ptr %7, align 4
  br label %91

91:                                               ; preds = %88, %87, %81, %75
  call void @llvm.lifetime.end.p0(i64 8, ptr %10) #9
  call void @llvm.lifetime.end.p0(i64 8, ptr %9) #9
  %92 = load i32, ptr %7, align 4
  switch i32 %92, label %97 [
    i32 0, label %93
  ]

93:                                               ; preds = %91
  br label %94

94:                                               ; preds = %93
  %95 = load i32, ptr %8, align 4, !tbaa !28
  %96 = add nsw i32 %95, 1
  store i32 %96, ptr %8, align 4, !tbaa !28
  br label %19, !llvm.loop !65

97:                                               ; preds = %91, %22
  call void @llvm.lifetime.end.p0(i64 4, ptr %8) #9
  %98 = load i32, ptr %7, align 4
  switch i32 %98, label %101 [
    i32 2, label %99
  ]

99:                                               ; preds = %97
  %100 = load ptr, ptr %6, align 8, !tbaa !42
  store ptr %100, ptr %3, align 8
  store i32 1, ptr %7, align 4
  br label %101

101:                                              ; preds = %99, %97, %17
  call void @llvm.lifetime.end.p0(i64 8, ptr %6) #9
  %102 = load ptr, ptr %3, align 8
  ret ptr %102
}