; Function Attrs: nounwind uwtable
define noalias ptr @av_packet_pack_dictionary(ptr noundef %0, ptr noundef writeonly captures(none) initializes((0, 8)) %1) local_unnamed_addr #3 {
  store i64 0, ptr %1, align 8, !tbaa !41
  %.not = icmp eq ptr %0, null
  br i1 %.not, label %.thread67, label %.preheader77

.preheader77:                                     ; preds = %2, %24
  %.not56 = phi i1 [ false, %24 ], [ true, %2 ]
  %.034 = phi ptr [ %23, %24 ], [ null, %2 ]
  %3 = tail call ptr @av_dict_iterate(ptr noundef nonnull %0, ptr noundef null) #16
  %.not5284 = icmp eq ptr %3, null
  br i1 %.not5284, label %._crit_edge, label %.preheader.lr.ph

.preheader.lr.ph:                                 ; preds = %.preheader77
  br i1 %.not56, label %.preheader.us, label %.preheader

.preheader.us:                                    ; preds = %.preheader.lr.ph, %.loopexit.split.us.us
  %4 = phi ptr [ %13, %.loopexit.split.us.us ], [ %3, %.preheader.lr.ph ]
  %.03885.us = phi i64 [ %12, %.loopexit.split.us.us ], [ 0, %.preheader.lr.ph ]
  br label %5

5:                                                ; preds = %11, %.preheader.us
  %.not55.us.us = phi i1 [ true, %.preheader.us ], [ false, %11 ]
  %.13982.us.us = phi i64 [ %.03885.us, %.preheader.us ], [ %12, %11 ]
  %.in.idx.us.us = select i1 %.not55.us.us, i64 0, i64 8
  %.in.us.us = getelementptr inbounds nuw i8, ptr %4, i64 %.in.idx.us.us
  %6 = load ptr, ptr %.in.us.us, align 8, !tbaa !39
  %7 = tail call i64 @strlen(ptr noundef nonnull dereferenceable(1) %6) #18
  %8 = add i64 %7, 1
  %9 = xor i64 %.13982.us.us, -1
  %10 = icmp ugt i64 %8, %9
  br i1 %10, label %.thread67, label %11

11:                                               ; preds = %5
  %12 = add i64 %8, %.13982.us.us
  br i1 %.not55.us.us, label %5, label %.loopexit.split.us.us, !llvm.loop !42

.loopexit.split.us.us:                            ; preds = %11
  %13 = tail call ptr @av_dict_iterate(ptr noundef nonnull %0, ptr noundef nonnull %4) #16
  %.not52.us = icmp eq ptr %13, null
  br i1 %.not52.us, label %._crit_edge, label %.preheader.us, !llvm.loop !43

.loopexit.split:                                  ; preds = %16
  %14 = tail call ptr @av_dict_iterate(ptr noundef nonnull %0, ptr noundef nonnull %15) #16
  %.not52 = icmp eq ptr %14, null
  br i1 %.not52, label %._crit_edge, label %.preheader, !llvm.loop !43

.preheader:                                       ; preds = %.preheader.lr.ph, %.loopexit.split
  %15 = phi ptr [ %14, %.loopexit.split ], [ %3, %.preheader.lr.ph ]
  %.03885 = phi i64 [ %21, %.loopexit.split ], [ 0, %.preheader.lr.ph ]
  br label %16

16:                                               ; preds = %.preheader, %16
  %.not55 = phi i1 [ true, %.preheader ], [ false, %16 ]
  %.13982 = phi i64 [ %.03885, %.preheader ], [ %21, %16 ]
  %.in.idx = select i1 %.not55, i64 0, i64 8
  %.in = getelementptr inbounds nuw i8, ptr %15, i64 %.in.idx
  %17 = load ptr, ptr %.in, align 8, !tbaa !39
  %18 = tail call i64 @strlen(ptr noundef nonnull dereferenceable(1) %17) #18
  %19 = add i64 %18, 1
  %20 = getelementptr inbounds nuw i8, ptr %.034, i64 %.13982
  tail call void @llvm.memcpy.p0.p0.i64(ptr align 1 %20, ptr nonnull align 1 %17, i64 %19, i1 false)
  %21 = add i64 %19, %.13982
  br i1 %.not55, label %16, label %.loopexit.split, !llvm.loop !42

._crit_edge:                                      ; preds = %.loopexit.split, %.loopexit.split.us.us, %.preheader77
  %.038.lcssa = phi i64 [ 0, %.preheader77 ], [ %12, %.loopexit.split.us.us ], [ %21, %.loopexit.split ]
  br i1 %.not56, label %22, label %.thread67

22:                                               ; preds = %._crit_edge
  %23 = tail call noalias ptr @av_malloc(i64 noundef %.038.lcssa) #16
  %.not54 = icmp eq ptr %23, null
  br i1 %.not54, label %.thread67, label %24

24:                                               ; preds = %22
  store i64 %.038.lcssa, ptr %1, align 8, !tbaa !41
  br label %.preheader77, !llvm.loop !44

.thread67:                                        ; preds = %22, %._crit_edge, %5, %2
  %.0 = phi ptr [ null, %2 ], [ null, %5 ], [ null, %22 ], [ %.034, %._crit_edge ]
  ret ptr %.0
}